; Function Attrs: mustprogress uwtable
define noundef i32 @_ZNK10open_spiel12connect_four16ConnectFourState13CurrentPlayerEv(ptr noundef nonnull align 8 dereferenceable(236) %0) unnamed_addr #3 align 2 {
  %2 = load ptr, ptr %0, align 8
  %3 = getelementptr inbounds nuw i8, ptr %2, i64 88
  %4 = load ptr, ptr %3, align 8
  %5 = tail call noundef zeroext i1 %4(ptr noundef nonnull align 8 dereferenceable(236) %0)
  %6 = getelementptr inbounds nuw i8, ptr %0, i64 60
  %7 = load i32, ptr %6, align 4
  %.0 = select i1 %5, i32 -4, i32 %7
  ret i32 %.0
}